target datalayout = "e-m:e-p270:32:32-p271:32:32-p272:64:64-i64:64-i128:128-f80:128-n8:16:32:64-S128"
target triple = "x86_64-pc-linux-gnu"

%struct.BrotliDecoderStateStruct = type { i32, i32, %struct.BrotliBitReader, ptr, ptr, ptr, %union.anon, i64, i32, i32, i32, i32, i32, i32, [4 x i32], i32, i32, ptr, ptr, ptr, ptr, ptr, ptr, %struct.HuffmanTreeGroup, %struct.HuffmanTreeGroup, %struct.HuffmanTreeGroup, ptr, ptr, i32, i32, [3 x i64], i64, [3 x i64], [6 x i64], i64, i64, i64, ptr, ptr, i64, i64, i64, [65 x i32], i32, i32, i8, ptr, ptr, ptr, i64, i32, i32, i32, i32, i32, i32, i64, ptr, ptr, ptr, ptr, [8 x i32], %union.anon.0 }
%struct.BrotliBitReader = type { i64, i64, ptr, ptr, ptr }
%union.anon = type { i64 }
%struct.HuffmanTreeGroup = type { ptr, ptr, i16, i16, i16 }
%union.anon.0 = type { %struct.BrotliMetablockBodyArena }
%struct.BrotliMetablockBodyArena = type { [544 x i8], [544 x i64] }

; Function Attrs: alwaysinline nounwind uwtable
define internal i64 @BrotliBitReaderGetAvailIn(ptr noundef %0) #6 {
  %2 = alloca ptr, align 8
  store ptr %0, ptr %2, align 8, !tbaa !19
  %3 = load ptr, ptr %2, align 8, !tbaa !19
  %4 = getelementptr inbounds nuw %struct.BrotliBitReader, ptr %3, i32 0, i32 4
  %5 = load ptr, ptr %4, align 8, !tbaa !50
  %6 = load ptr, ptr %2, align 8, !tbaa !19
  %7 = getelementptr inbounds nuw %struct.BrotliBitReader, ptr %6, i32 0, i32 2
  %8 = load ptr, ptr %7, align 8, !tbaa !49
  %9 = ptrtoint ptr %5 to i64
  %10 = ptrtoint ptr %8 to i64
  %11 = sub i64 %9, %10
  ret i64 %11
}

; Function Attrs: alwaysinline nounwind uwtable
define internal void @BrotliBitReaderNormalize(ptr noundef %0) #6 {
  %2 = alloca ptr, align 8
  store ptr %0, ptr %2, align 8, !tbaa !19
  %3 = load ptr, ptr %2, align 8, !tbaa !19
  %4 = getelementptr inbounds nuw %struct.BrotliBitReader, ptr %3, i32 0, i32 1
  %5 = load i64, ptr %4, align 8, !tbaa !88
  %6 = icmp ult i64 %5, 64
  br i1 %6, label %7, label %17

7:                                                ; preds = %1
  %8 = load ptr, ptr %2, align 8, !tbaa !19
  %9 = getelementptr inbounds nuw %struct.BrotliBitReader, ptr %8, i32 0, i32 1
  %10 = load i64, ptr %9, align 8, !tbaa !88
  %11 = shl i64 1, %10
  %12 = sub i64 %11, 1
  %13 = load ptr, ptr %2, align 8, !tbaa !19
  %14 = getelementptr inbounds nuw %struct.BrotliBitReader, ptr %13, i32 0, i32 0
  %15 = load i64, ptr %14, align 8, !tbaa !145
  %16 = and i64 %15, %12
  store i64 %16, ptr %14, align 8, !tbaa !145
  br label %17

17:                                               ; preds = %7, %1
  ret void
}

; Function Attrs: alwaysinline nounwind uwtable
define internal void @BrotliDropBits(ptr noundef %0, i64 noundef %1) #6 {
  %3 = alloca ptr, align 8
  %4 = alloca i64, align 8
  store ptr %0, ptr %3, align 8, !tbaa !19
  store i64 %1, ptr %4, align 8, !tbaa !22
  %5 = load i64, ptr %4, align 8, !tbaa !22
  %6 = load ptr, ptr %3, align 8, !tbaa !19
  %7 = getelementptr inbounds nuw %struct.BrotliBitReader, ptr %6, i32 0, i32 1
  %8 = load i64, ptr %7, align 8, !tbaa !88
  %9 = sub i64 %8, %5
  store i64 %9, ptr %7, align 8, !tbaa !88
  %10 = load i64, ptr %4, align 8, !tbaa !22
  %11 = load ptr, ptr %3, align 8, !tbaa !19
  %12 = getelementptr inbounds nuw %struct.BrotliBitReader, ptr %11, i32 0, i32 0
  %13 = load i64, ptr %12, align 8, !tbaa !145
  %14 = lshr i64 %13, %10
  store i64 %14, ptr %12, align 8, !tbaa !145
  ret void
}

; Function Attrs: alwaysinline nounwind uwtable
define internal i64 @BrotliGetBitsUnmasked(ptr noundef %0) #6 {
  %2 = alloca ptr, align 8
  store ptr %0, ptr %2, align 8, !tbaa !19
  %3 = load ptr, ptr %2, align 8, !tbaa !19
  %4 = getelementptr inbounds nuw %struct.BrotliBitReader, ptr %3, i32 0, i32 0
  %5 = load i64, ptr %4, align 8, !tbaa !145
  ret i64 %5
}

; Function Attrs: alwaysinline nounwind uwtable
define internal void @BrotliDropBytes(ptr noundef %0, i64 noundef %1) #6 {
  %3 = alloca ptr, align 8
  %4 = alloca i64, align 8
  store ptr %0, ptr %3, align 8, !tbaa !19
  store i64 %1, ptr %4, align 8, !tbaa !22
  %5 = load i64, ptr %4, align 8, !tbaa !22
  %6 = load ptr, ptr %3, align 8, !tbaa !19
  %7 = getelementptr inbounds nuw %struct.BrotliBitReader, ptr %6, i32 0, i32 2
  %8 = load ptr, ptr %7, align 8, !tbaa !49
  %9 = getelementptr inbounds nuw i8, ptr %8, i64 %5
  store ptr %9, ptr %7, align 8, !tbaa !49
  ret void
}

; Function Attrs: alwaysinline nounwind uwtable
define internal i64 @BrotliGetRemainingBytes(ptr noundef %0) #6 {
  %2 = alloca i64, align 8
  %3 = alloca ptr, align 8
  %4 = alloca i64, align 8
  %5 = alloca i32, align 4
  store ptr %0, ptr %3, align 8, !tbaa !19
  call void @llvm.lifetime.start.p0(i64 8, ptr %4) #11
  %6 = load ptr, ptr %3, align 8, !tbaa !19
  %7 = call i64 @BrotliBitReaderGetAvailIn(ptr noundef %6)
  store i64 %7, ptr %4, align 8, !tbaa !22
  %8 = load i64, ptr %4, align 8, !tbaa !22
  %9 = icmp ugt i64 %8, 1073741824
  br i1 %9, label %10, label %11

10:                                               ; preds = %1
  store i64 1073741824, ptr %2, align 8
  store i32 1, ptr %5, align 4
  br label %17

11:                                               ; preds = %1
  %12 = load i64, ptr %4, align 8, !tbaa !22
  %13 = load ptr, ptr %3, align 8, !tbaa !19
  %14 = call i64 @BrotliGetAvailableBits(ptr noundef %13)
  %15 = lshr i64 %14, 3
  %16 = add i64 %12, %15
  store i64 %16, ptr %2, align 8
  store i32 1, ptr %5, align 4
  br label %17

17:                                               ; preds = %11, %10
  call void @llvm.lifetime.end.p0(i64 8, ptr %4) #11
  %18 = load i64, ptr %2, align 8
  ret i64 %18
}

; Function Attrs: alwaysinline nounwind uwtable
define internal void @BrotliCopyBytes(ptr noundef %0, ptr noundef %1, i64 noundef %2) #6 {
  %4 = alloca ptr, align 8
  %5 = alloca ptr, align 8
  %6 = alloca i64, align 8
  store ptr %0, ptr %4, align 8, !tbaa !23
  store ptr %1, ptr %5, align 8, !tbaa !19
  store i64 %2, ptr %6, align 8, !tbaa !22
  br label %7

7:                                                ; preds = %16, %3
  %8 = load ptr, ptr %5, align 8, !tbaa !19
  %9 = call i64 @BrotliGetAvailableBits(ptr noundef %8)
  %10 = icmp uge i64 %9, 8
  br i1 %10, label %11, label %14

11:                                               ; preds = %7
  %12 = load i64, ptr %6, align 8, !tbaa !22
  %13 = icmp ugt i64 %12, 0
  br label %14

14:                                               ; preds = %11, %7
  %15 = phi i1 [ false, %7 ], [ %13, %11 ]
  br i1 %15, label %16, label %26

16:                                               ; preds = %14
  %17 = load ptr, ptr %5, align 8, !tbaa !19
  %18 = call i64 @BrotliGetBitsUnmasked(ptr noundef %17)
  %19 = trunc i64 %18 to i8
  %20 = load ptr, ptr %4, align 8, !tbaa !23
  store i8 %19, ptr %20, align 1, !tbaa !51
  %21 = load ptr, ptr %5, align 8, !tbaa !19
  call void @BrotliDropBits(ptr noundef %21, i64 noundef 8)
  %22 = load ptr, ptr %4, align 8, !tbaa !23
  %23 = getelementptr inbounds nuw i8, ptr %22, i32 1
  store ptr %23, ptr %4, align 8, !tbaa !23
  %24 = load i64, ptr %6, align 8, !tbaa !22
  %25 = add i64 %24, -1
  store i64 %25, ptr %6, align 8, !tbaa !22
  br label %7, !llvm.loop !161

26:                                               ; preds = %14
  %27 = load ptr, ptr %5, align 8, !tbaa !19
  call void @BrotliBitReaderNormalize(ptr noundef %27)
  %28 = load i64, ptr %6, align 8, !tbaa !22
  %29 = icmp ugt i64 %28, 0
  br i1 %29, label %30, label %38

30:                                               ; preds = %26
  %31 = load ptr, ptr %4, align 8, !tbaa !23
  %32 = load ptr, ptr %5, align 8, !tbaa !19
  %33 = getelementptr inbounds nuw %struct.BrotliBitReader, ptr %32, i32 0, i32 2
  %34 = load ptr, ptr %33, align 8, !tbaa !49
  %35 = load i64, ptr %6, align 8, !tbaa !22
  call void @llvm.memcpy.p0.p0.i64(ptr align 1 %31, ptr align 1 %34, i64 %35, i1 false)
  %36 = load ptr, ptr %5, align 8, !tbaa !19
  %37 = load i64, ptr %6, align 8, !tbaa !22
  call void @BrotliDropBytes(ptr noundef %36, i64 noundef %37)
  br label %38

38:                                               ; preds = %30, %26
  ret void
}

; Function Attrs: alwaysinline nounwind uwtable
define internal i64 @BrotliGetAvailableBits(ptr noundef %0) #6 {
  %2 = alloca ptr, align 8
  store ptr %0, ptr %2, align 8, !tbaa !19
  %3 = load ptr, ptr %2, align 8, !tbaa !19
  %4 = getelementptr inbounds nuw %struct.BrotliBitReader, ptr %3, i32 0, i32 1
  %5 = load i64, ptr %4, align 8, !tbaa !88
  ret i64 %5
}

; Function Attrs: noinline nounwind uwtable
define internal i32 @SkipMetadataBlock(ptr noundef %0) #5 {
  %2 = alloca i32, align 4
  %3 = alloca ptr, align 8
  %4 = alloca ptr, align 8
  %5 = alloca i32, align 4
  %6 = alloca [8 x i8], align 1
  %7 = alloca i32, align 4
  %8 = alloca i32, align 4
  store ptr %0, ptr %3, align 8, !tbaa !3
  call void @llvm.lifetime.start.p0(i64 8, ptr %4) #11
  %9 = load ptr, ptr %3, align 8, !tbaa !3
  %10 = getelementptr inbounds nuw %struct.BrotliDecoderStateStruct, ptr %9, i32 0, i32 2
  store ptr %10, ptr %4, align 8, !tbaa !19
  %11 = load ptr, ptr %3, align 8, !tbaa !3
  %12 = getelementptr inbounds nuw %struct.BrotliDecoderStateStruct, ptr %11, i32 0, i32 16
  %13 = load i32, ptr %12, align 4, !tbaa !58
  %14 = icmp eq i32 %13, 0
  br i1 %14, label %15, label %16

15:                                               ; preds = %1
  store i32 1, ptr %2, align 4
  store i32 1, ptr %5, align 4
  br label %118

16:                                               ; preds = %1
  %17 = load ptr, ptr %4, align 8, !tbaa !19
  %18 = call i64 @BrotliGetAvailableBits(ptr noundef %17)
  %19 = icmp uge i64 %18, 8
  br i1 %19, label %20, label %68

20:                                               ; preds = %16
  call void @llvm.lifetime.start.p0(i64 8, ptr %6) #11
  call void @llvm.lifetime.start.p0(i64 4, ptr %7) #11
  %21 = load ptr, ptr %4, align 8, !tbaa !19
  %22 = call i64 @BrotliGetAvailableBits(ptr noundef %21)
  %23 = trunc i64 %22 to i32
  %24 = ashr i32 %23, 3
  store i32 %24, ptr %7, align 4, !tbaa !8
  %25 = load i32, ptr %7, align 4, !tbaa !8
  %26 = load ptr, ptr %3, align 8, !tbaa !3
  %27 = getelementptr inbounds nuw %struct.BrotliDecoderStateStruct, ptr %26, i32 0, i32 16
  %28 = load i32, ptr %27, align 4, !tbaa !58
  %29 = icmp sgt i32 %25, %28
  br i1 %29, label %30, label %34

30:                                               ; preds = %20
  %31 = load ptr, ptr %3, align 8, !tbaa !3
  %32 = getelementptr inbounds nuw %struct.BrotliDecoderStateStruct, ptr %31, i32 0, i32 16
  %33 = load i32, ptr %32, align 4, !tbaa !58
  store i32 %33, ptr %7, align 4, !tbaa !8
  br label %34

34:                                               ; preds = %30, %20
  %35 = getelementptr inbounds [8 x i8], ptr %6, i64 0, i64 0
  %36 = load ptr, ptr %4, align 8, !tbaa !19
  %37 = load i32, ptr %7, align 4, !tbaa !8
  %38 = sext i32 %37 to i64
  call void @BrotliCopyBytes(ptr noundef %35, ptr noundef %36, i64 noundef %38)
  %39 = load ptr, ptr %3, align 8, !tbaa !3
  %40 = getelementptr inbounds nuw %struct.BrotliDecoderStateStruct, ptr %39, i32 0, i32 47
  %41 = load ptr, ptr %40, align 8, !tbaa !109
  %42 = icmp ne ptr %41, null
  br i1 %42, label %43, label %53

43:                                               ; preds = %34
  %44 = load ptr, ptr %3, align 8, !tbaa !3
  %45 = getelementptr inbounds nuw %struct.BrotliDecoderStateStruct, ptr %44, i32 0, i32 47
  %46 = load ptr, ptr %45, align 8, !tbaa !109
  %47 = load ptr, ptr %3, align 8, !tbaa !3
  %48 = getelementptr inbounds nuw %struct.BrotliDecoderStateStruct, ptr %47, i32 0, i32 48
  %49 = load ptr, ptr %48, align 8, !tbaa !57
  %50 = getelementptr inbounds [8 x i8], ptr %6, i64 0, i64 0
  %51 = load i32, ptr %7, align 4, !tbaa !8
  %52 = sext i32 %51 to i64
  call void %46(ptr noundef %49, ptr noundef %50, i64 noundef %52)
  br label %53

53:                                               ; preds = %43, %34
  %54 = load i32, ptr %7, align 4, !tbaa !8
  %55 = load ptr, ptr %3, align 8, !tbaa !3
  %56 = getelementptr inbounds nuw %struct.BrotliDecoderStateStruct, ptr %55, i32 0, i32 16
  %57 = load i32, ptr %56, align 4, !tbaa !58
  %58 = sub nsw i32 %57, %54
  store i32 %58, ptr %56, align 4, !tbaa !58
  %59 = load ptr, ptr %3, align 8, !tbaa !3
  %60 = getelementptr inbounds nuw %struct.BrotliDecoderStateStruct, ptr %59, i32 0, i32 16
  %61 = load i32, ptr %60, align 4, !tbaa !58
  %62 = icmp eq i32 %61, 0
  br i1 %62, label %63, label %64

63:                                               ; preds = %53
  store i32 1, ptr %2, align 4
  store i32 1, ptr %5, align 4
  br label %65

64:                                               ; preds = %53
  store i32 0, ptr %5, align 4
  br label %65

65:                                               ; preds = %64, %63
  call void @llvm.lifetime.end.p0(i64 4, ptr %7) #11
  call void @llvm.lifetime.end.p0(i64 8, ptr %6) #11
  %66 = load i32, ptr %5, align 4
  switch i32 %66, label %118 [
    i32 0, label %67
  ]

67:                                               ; preds = %65
  br label %68

68:                                               ; preds = %67, %16
  call void @llvm.lifetime.start.p0(i64 4, ptr %8) #11
  %69 = load ptr, ptr %4, align 8, !tbaa !19
  %70 = call i64 @BrotliGetRemainingBytes(ptr noundef %69)
  %71 = trunc i64 %70 to i32
  store i32 %71, ptr %8, align 4, !tbaa !8
  %72 = load i32, ptr %8, align 4, !tbaa !8
  %73 = load ptr, ptr %3, align 8, !tbaa !3
  %74 = getelementptr inbounds nuw %struct.BrotliDecoderStateStruct, ptr %73, i32 0, i32 16
  %75 = load i32, ptr %74, align 4, !tbaa !58
  %76 = icmp sgt i32 %72, %75
  br i1 %76, label %77, label %81

77:                                               ; preds = %68
  %78 = load ptr, ptr %3, align 8, !tbaa !3
  %79 = getelementptr inbounds nuw %struct.BrotliDecoderStateStruct, ptr %78, i32 0, i32 16
  %80 = load i32, ptr %79, align 4, !tbaa !58
  store i32 %80, ptr %8, align 4, !tbaa !8
  br label %81

81:                                               ; preds = %77, %68
  %82 = load i32, ptr %8, align 4, !tbaa !8
  %83 = icmp sgt i32 %82, 0
  br i1 %83, label %84, label %116

84:                                               ; preds = %81
  %85 = load ptr, ptr %3, align 8, !tbaa !3
  %86 = getelementptr inbounds nuw %struct.BrotliDecoderStateStruct, ptr %85, i32 0, i32 47
  %87 = load ptr, ptr %86, align 8, !tbaa !109
  %88 = icmp ne ptr %87, null
  br i1 %88, label %89, label %101

89:                                               ; preds = %84
  %90 = load ptr, ptr %3, align 8, !tbaa !3
  %91 = getelementptr inbounds nuw %struct.BrotliDecoderStateStruct, ptr %90, i32 0, i32 47
  %92 = load ptr, ptr %91, align 8, !tbaa !109
  %93 = load ptr, ptr %3, align 8, !tbaa !3
  %94 = getelementptr inbounds nuw %struct.BrotliDecoderStateStruct, ptr %93, i32 0, i32 48
  %95 = load ptr, ptr %94, align 8, !tbaa !57
  %96 = load ptr, ptr %4, align 8, !tbaa !19
  %97 = getelementptr inbounds nuw %struct.BrotliBitReader, ptr %96, i32 0, i32 2
  %98 = load ptr, ptr %97, align 8, !tbaa !49
  %99 = load i32, ptr %8, align 4, !tbaa !8
  %100 = sext i32 %99 to i64
  call void %92(ptr noundef %95, ptr noundef %98, i64 noundef %100)
  br label %101

101:                                              ; preds = %89, %84
  %102 = load ptr, ptr %4, align 8, !tbaa !19
  %103 = load i32, ptr %8, align 4, !tbaa !8
  %104 = sext i32 %103 to i64
  call void @BrotliDropBytes(ptr noundef %102, i64 noundef %104)
  %105 = load i32, ptr %8, align 4, !tbaa !8
  %106 = load ptr, ptr %3, align 8, !tbaa !3
  %107 = getelementptr inbounds nuw %struct.BrotliDecoderStateStruct, ptr %106, i32 0, i32 16
  %108 = load i32, ptr %107, align 4, !tbaa !58
  %109 = sub nsw i32 %108, %105
  store i32 %109, ptr %107, align 4, !tbaa !58
  %110 = load ptr, ptr %3, align 8, !tbaa !3
  %111 = getelementptr inbounds nuw %struct.BrotliDecoderStateStruct, ptr %110, i32 0, i32 16
  %112 = load i32, ptr %111, align 4, !tbaa !58
  %113 = icmp eq i32 %112, 0
  br i1 %113, label %114, label %115

114:                                              ; preds = %101
  store i32 1, ptr %2, align 4
  store i32 1, ptr %5, align 4
  br label %117

115:                                              ; preds = %101
  br label %116

116:                                              ; preds = %115, %81
  store i32 2, ptr %2, align 4
  store i32 1, ptr %5, align 4
  br label %117

117:                                              ; preds = %116, %114
  call void @llvm.lifetime.end.p0(i64 4, ptr %8) #11
  br label %118

118:                                              ; preds = %117, %65, %15
  call void @llvm.lifetime.end.p0(i64 8, ptr %4) #11
  %119 = load i32, ptr %2, align 4
  ret i32 %119
}