; Function Attrs: noinline nounwind uwtable
define internal fastcc range(i32 1, 3) i32 @SkipMetadataBlock(ptr noundef captures(none) %0) unnamed_addr #10 {
  %2 = alloca [8 x i8], align 1
  %3 = getelementptr inbounds nuw i8, ptr %0, i64 8
  %4 = getelementptr inbounds nuw i8, ptr %0, i64 132
  %5 = load i32, ptr %4, align 4, !tbaa !54
  %6 = icmp eq i32 %5, 0
  br i1 %6, label %74, label %7

7:                                                ; preds = %1
  %8 = getelementptr inbounds nuw i8, ptr %0, i64 16
  %9 = load i64, ptr %8, align 8, !tbaa !46
  %10 = icmp ugt i64 %9, 7
  br i1 %10, label %11, label %44

11:                                               ; preds = %7
  call void @llvm.lifetime.start.p0(i64 8, ptr nonnull %2) #22
  %12 = trunc i64 %9 to i32
  %13 = ashr i32 %12, 3
  %spec.select = tail call i32 @llvm.smin.i32(i32 %13, i32 %5)
  %14 = sext i32 %spec.select to i64
  %.not62 = icmp eq i32 %spec.select, 0
  br i1 %.not62, label %26, label %.lr.ph

.lr.ph:                                           ; preds = %11
  %.promoted = load i64, ptr %3, align 8, !tbaa !47
  br label %15

15:                                               ; preds = %.lr.ph, %15
  %16 = phi i64 [ %.promoted, %.lr.ph ], [ %20, %15 ]
  %.0.i4447 = phi i64 [ %14, %.lr.ph ], [ %22, %15 ]
  %.013.i46 = phi ptr [ %2, %.lr.ph ], [ %21, %15 ]
  %17 = phi i64 [ %9, %.lr.ph ], [ %19, %15 ]
  %18 = trunc i64 %16 to i8
  store i8 %18, ptr %.013.i46, align 1, !tbaa !44
  %19 = add i64 %17, -8
  %20 = lshr i64 %16, 8
  %21 = getelementptr inbounds nuw i8, ptr %.013.i46, i64 1
  %22 = add nsw i64 %.0.i4447, -1
  %23 = icmp ugt i64 %19, 7
  %24 = icmp ne i64 %22, 0
  %25 = select i1 %23, i1 %24, i1 false
  br i1 %25, label %15, label %._crit_edge, !llvm.loop !133

._crit_edge:                                      ; preds = %15
  store i64 %20, ptr %3, align 8, !tbaa !47
  store i64 %19, ptr %8, align 8, !tbaa !46
  br label %26

26:                                               ; preds = %._crit_edge, %11
  %.lcssa45 = phi i64 [ %19, %._crit_edge ], [ %9, %11 ]
  %.013.i.lcssa = phi ptr [ %21, %._crit_edge ], [ %2, %11 ]
  %.0.i44.lcssa = phi i64 [ %22, %._crit_edge ], [ 0, %11 ]
  %.lcssa = phi i1 [ %24, %._crit_edge ], [ false, %11 ]
  %27 = icmp ult i64 %.lcssa45, 64
  br i1 %27, label %28, label %BrotliBitReaderNormalize.exit.i

28:                                               ; preds = %26
  %notmask.i.i = shl nsw i64 -1, %.lcssa45
  %29 = xor i64 %notmask.i.i, -1
  %30 = load i64, ptr %3, align 8, !tbaa !47
  %31 = and i64 %30, %29
  store i64 %31, ptr %3, align 8, !tbaa !47
  br label %BrotliBitReaderNormalize.exit.i

BrotliBitReaderNormalize.exit.i:                  ; preds = %28, %26
  br i1 %.lcssa, label %32, label %BrotliCopyBytes.exit

32:                                               ; preds = %BrotliBitReaderNormalize.exit.i
  %33 = getelementptr inbounds nuw i8, ptr %0, i64 24
  %34 = load ptr, ptr %33, align 8, !tbaa !40
  call void @llvm.memcpy.p0.p0.i64(ptr nonnull align 1 %.013.i.lcssa, ptr align 1 %34, i64 %.0.i44.lcssa, i1 false)
  %35 = getelementptr inbounds nuw i8, ptr %34, i64 %.0.i44.lcssa
  store ptr %35, ptr %33, align 8, !tbaa !40
  br label %BrotliCopyBytes.exit

BrotliCopyBytes.exit:                             ; preds = %BrotliBitReaderNormalize.exit.i, %32
  %36 = getelementptr inbounds nuw i8, ptr %0, i64 728
  %37 = load ptr, ptr %36, align 8, !tbaa !134
  %.not = icmp eq ptr %37, null
  br i1 %.not, label %41, label %38

38:                                               ; preds = %BrotliCopyBytes.exit
  %39 = getelementptr inbounds nuw i8, ptr %0, i64 736
  %40 = load ptr, ptr %39, align 8, !tbaa !53
  call void %37(ptr noundef %40, ptr noundef nonnull %2, i64 noundef %14) #22
  %.pre = load i32, ptr %4, align 4, !tbaa !54
  br label %41

41:                                               ; preds = %38, %BrotliCopyBytes.exit
  %42 = phi i32 [ %.pre, %38 ], [ %5, %BrotliCopyBytes.exit ]
  %43 = sub nsw i32 %42, %spec.select
  store i32 %43, ptr %4, align 4, !tbaa !54
  %.not41 = icmp eq i32 %42, %spec.select
  call void @llvm.lifetime.end.p0(i64 8, ptr nonnull %2) #22
  br i1 %.not41, label %74, label %44

44:                                               ; preds = %41, %7
  %45 = phi i32 [ %43, %41 ], [ %5, %7 ]
  %46 = getelementptr inbounds nuw i8, ptr %0, i64 40
  %47 = load ptr, ptr %46, align 8, !tbaa !41
  %48 = getelementptr inbounds nuw i8, ptr %0, i64 24
  %49 = load ptr, ptr %48, align 8, !tbaa !40
  %50 = ptrtoint ptr %47 to i64
  %51 = ptrtoint ptr %49 to i64
  %52 = sub i64 %50, %51
  %53 = icmp ugt i64 %52, 1073741824
  br i1 %53, label %BrotliGetRemainingBytes.exit, label %54

54:                                               ; preds = %44
  %55 = load i64, ptr %8, align 8, !tbaa !46
  %56 = lshr i64 %55, 3
  %57 = add nuw nsw i64 %56, %52
  %58 = trunc i64 %57 to i32
  br label %BrotliGetRemainingBytes.exit

BrotliGetRemainingBytes.exit:                     ; preds = %44, %54
  %.0.i = phi i32 [ %58, %54 ], [ 1073741824, %44 ]
  %spec.select43 = call i32 @llvm.smin.i32(i32 %45, i32 %.0.i)
  %59 = icmp sgt i32 %spec.select43, 0
  br i1 %59, label %60, label %73

60:                                               ; preds = %BrotliGetRemainingBytes.exit
  %61 = getelementptr inbounds nuw i8, ptr %0, i64 728
  %62 = load ptr, ptr %61, align 8, !tbaa !134
  %.not42 = icmp eq ptr %62, null
  br i1 %.not42, label %._crit_edge60, label %63

._crit_edge60:                                    ; preds = %60
  %.pre61 = zext nneg i32 %spec.select43 to i64
  br label %67

63:                                               ; preds = %60
  %64 = getelementptr inbounds nuw i8, ptr %0, i64 736
  %65 = load ptr, ptr %64, align 8, !tbaa !53
  %66 = zext nneg i32 %spec.select43 to i64
  call void %62(ptr noundef %65, ptr noundef %49, i64 noundef %66) #22
  %.pre58 = load ptr, ptr %48, align 8, !tbaa !40
  %.pre59 = load i32, ptr %4, align 4, !tbaa !54
  br label %67

67:                                               ; preds = %._crit_edge60, %63
  %.pre-phi = phi i64 [ %.pre61, %._crit_edge60 ], [ %66, %63 ]
  %68 = phi i32 [ %45, %._crit_edge60 ], [ %.pre59, %63 ]
  %69 = phi ptr [ %49, %._crit_edge60 ], [ %.pre58, %63 ]
  %70 = getelementptr inbounds nuw i8, ptr %69, i64 %.pre-phi
  store ptr %70, ptr %48, align 8, !tbaa !40
  %71 = sub nsw i32 %68, %spec.select43
  store i32 %71, ptr %4, align 4, !tbaa !54
  %72 = icmp eq i32 %68, %spec.select43
  br i1 %72, label %74, label %73

73:                                               ; preds = %67, %BrotliGetRemainingBytes.exit
  br label %74

74:                                               ; preds = %73, %67, %1, %41
  %.034 = phi i32 [ 1, %41 ], [ 1, %1 ], [ 2, %73 ], [ 1, %67 ]
  ret i32 %.034
}